target datalayout = "e-m:e-p270:32:32-p271:32:32-p272:64:64-i64:64-i128:128-f80:128-n8:16:32:64-S128"
target triple = "x86_64-pc-linux-gnu"

%"class.llvm::Target" = type { ptr, ptr, ptr, ptr, ptr, i8, ptr, ptr, ptr, ptr, ptr, ptr, ptr, ptr, ptr, ptr, ptr, ptr, ptr, ptr, ptr, ptr, ptr, ptr, ptr, ptr, ptr, ptr, ptr, ptr, ptr }
%"struct.llvm::RegisterAsmPrinter" = type { i8 }

; Function Attrs: mustprogress nounwind uwtable
define linkonce_odr hidden void @_ZN4llvm14TargetRegistry18RegisterAsmPrinterERNS_6TargetEPFPNS_10AsmPrinterERNS_13TargetMachineEOSt10unique_ptrINS_10MCStreamerESt14default_deleteIS8_EEE(ptr noundef nonnull align 8 dereferenceable(248) %0, ptr noundef %1) #0 comdat align 2 {
  %3 = alloca ptr, align 8
  %4 = alloca ptr, align 8
  store ptr %0, ptr %3, align 8
  store ptr %1, ptr %4, align 8
  %5 = load ptr, ptr %4, align 8
  %6 = load ptr, ptr %3, align 8
  %7 = getelementptr inbounds nuw %"class.llvm::Target", ptr %6, i32 0, i32 15
  store ptr %5, ptr %7, align 8
  ret void
}

; Function Attrs: mustprogress nounwind uwtable
define linkonce_odr hidden void @_ZN4llvm18RegisterAsmPrinterINS_13X86AsmPrinterEEC2ERNS_6TargetE(ptr noundef nonnull align 1 dereferenceable(1) %0, ptr noundef nonnull align 8 dereferenceable(248) %1) unnamed_addr #0 comdat align 2 {
  %3 = alloca ptr, align 8
  %4 = alloca ptr, align 8
  store ptr %0, ptr %3, align 8
  store ptr %1, ptr %4, align 8
  %5 = load ptr, ptr %4, align 8
  call void @_ZN4llvm14TargetRegistry18RegisterAsmPrinterERNS_6TargetEPFPNS_10AsmPrinterERNS_13TargetMachineEOSt10unique_ptrINS_10MCStreamerESt14default_deleteIS8_EEE(ptr noundef nonnull align 8 dereferenceable(248) %5, ptr noundef @_ZN4llvm18RegisterAsmPrinterINS_13X86AsmPrinterEE9AllocatorERNS_13TargetMachineEOSt10unique_ptrINS_10MCStreamerESt14default_deleteIS6_EE)
  ret void
}

; Function Attrs: mustprogress nounwind uwtable
define dso_local void @LLVMInitializeX86AsmPrinter() #0 {
  %1 = alloca %"struct.llvm::RegisterAsmPrinter", align 1
  %2 = alloca %"struct.llvm::RegisterAsmPrinter", align 1
  %3 = call noundef nonnull align 8 dereferenceable(248) ptr @_ZN4llvm18getTheX86_32TargetEv()
  call void @_ZN4llvm18RegisterAsmPrinterINS_13X86AsmPrinterEEC2ERNS_6TargetE(ptr noundef nonnull align 1 dereferenceable(1) %1, ptr noundef nonnull align 8 dereferenceable(248) %3)
  %4 = call noundef nonnull align 8 dereferenceable(248) ptr @_ZN4llvm18getTheX86_64TargetEv()
  call void @_ZN4llvm18RegisterAsmPrinterINS_13X86AsmPrinterEEC2ERNS_6TargetE(ptr noundef nonnull align 1 dereferenceable(1) %2, ptr noundef nonnull align 8 dereferenceable(248) %4)
  ret void
}