; Function Attrs: mustprogress nounwind uwtable
define dso_local void @LLVMInitializeX86AsmPrinter() local_unnamed_addr #0 {
  %1 = tail call noundef nonnull align 8 dereferenceable(248) ptr @_ZN4llvm18getTheX86_32TargetEv() #16
  %2 = getelementptr inbounds nuw i8, ptr %1, i64 120
  store ptr @_ZN4llvm18RegisterAsmPrinterINS_13X86AsmPrinterEE9AllocatorERNS_13TargetMachineEOSt10unique_ptrINS_10MCStreamerESt14default_deleteIS6_EE, ptr %2, align 8
  %3 = tail call noundef nonnull align 8 dereferenceable(248) ptr @_ZN4llvm18getTheX86_64TargetEv() #16
  %4 = getelementptr inbounds nuw i8, ptr %3, i64 120
  store ptr @_ZN4llvm18RegisterAsmPrinterINS_13X86AsmPrinterEE9AllocatorERNS_13TargetMachineEOSt10unique_ptrINS_10MCStreamerESt14default_deleteIS6_EE, ptr %4, align 8
  ret void
}